; Function Attrs: nofree norecurse nosync nounwind uwtable
define dso_local noundef i32 @snprintf_async_signal_safe(ptr noundef %0, i64 noundef %1, ptr noundef readonly captures(none) %2, ...) local_unnamed_addr #26 {
  %4 = alloca [1 x %struct.__va_list_tag], align 16
  call void @llvm.lifetime.start.p0(i64 24, ptr nonnull %4) #29
  call void @llvm.va_start.p0(ptr nonnull %4)
  %5 = call i32 @vsnprintf_async_signal_safe(ptr noundef %0, i64 noundef %1, ptr noundef %2, ptr noundef nonnull %4)
  call void @llvm.va_end.p0(ptr nonnull %4)
  call void @llvm.lifetime.end.p0(i64 24, ptr nonnull %4) #29
  ret i32 %5
}